target datalayout = "e-m:e-p270:32:32-p271:32:32-p272:64:64-i64:64-i128:128-f80:128-n8:16:32:64-S128"
target triple = "x86_64-pc-linux-gnu"

%class.QString = type { %struct.QArrayDataPointer.4 }
%struct.QArrayDataPointer.4 = type { ptr, ptr, i64 }
%class.ProtoTree = type { %class.QTreeView, ptr, %class.QMenu, %class.QMenu, %class.QList, i32, %class.QList.0, %class.QPoint, ptr, ptr }
%class.QTreeView = type { %class.QAbstractItemView }
%class.QAbstractItemView = type { %class.QAbstractScrollArea }
%class.QAbstractScrollArea = type { %class.QFrame }
%class.QFrame = type { %class.QWidget }
%class.QWidget = type { %class.QObject, %class.QPaintDevice.base, ptr }
%class.QObject = type { ptr, %class.QScopedPointer }
%class.QScopedPointer = type { ptr }
%class.QPaintDevice.base = type <{ ptr, i16 }>
%class.QMenu = type { %class.QWidget }
%class.QList = type { %struct.QArrayDataPointer }
%struct.QArrayDataPointer = type { ptr, ptr, i64 }
%class.QList.0 = type { %struct.QArrayDataPointer.3 }
%struct.QArrayDataPointer.3 = type { ptr, ptr, i64 }
%class.QPoint = type { i32, i32 }
%class.QFlags.30 = type { i32 }
%class.QInputEvent = type { %class.QEvent, ptr, i64, %class.QFlags.30, i32 }
%class.QEvent = type { ptr, i16, i8, i8, i8, i8, i16 }
%class.QKeyEvent = type <{ %class.QInputEvent, %class.QString, i32, i32, i32, i32, i16, [6 x i8] }>

; Function Attrs: mustprogress null_pointer_is_valid sspstrong uwtable
define void @_ZN9ProtoTree18updateContentWidthEv(ptr noundef align 8 dereferenceable_or_null(208) %0) #0 align 2 {
  %2 = alloca ptr, align 8
  store ptr %0, ptr %2, align 8
  %3 = load ptr, ptr %2, align 8
  %4 = getelementptr inbounds nuw %class.ProtoTree, ptr %3, i32 0, i32 5
  %5 = load i32, ptr %4, align 8
  %6 = icmp eq i32 %5, 0
  br i1 %6, label %7, label %10

7:                                                ; preds = %1
  %8 = call noundef i32 @_ZN7QObject10startTimerEiN2Qt9TimerTypeE(ptr noundef align 8 dereferenceable_or_null(16) %3, i32 noundef 0, i32 noundef 1)
  %9 = getelementptr inbounds nuw %class.ProtoTree, ptr %3, i32 0, i32 5
  store i32 %8, ptr %9, align 8
  br label %10

10:                                               ; preds = %7, %1
  ret void
}

; Function Attrs: mustprogress nounwind null_pointer_is_valid sspstrong uwtable
define linkonce_odr noundef i32 @_ZNK9QKeyEvent3keyEv(ptr noundef align 8 dereferenceable_or_null(82) %0) #4 comdat align 2 {
  %2 = alloca ptr, align 8
  store ptr %0, ptr %2, align 8
  %3 = load ptr, ptr %2, align 8
  %4 = getelementptr inbounds nuw %class.QKeyEvent, ptr %3, i32 0, i32 2
  %5 = load i32, ptr %4, align 8
  ret i32 %5
}

; Function Attrs: inlinehint mustprogress nounwind null_pointer_is_valid sspstrong uwtable
define linkonce_odr noundef zeroext i1 @_ZNK9QKeyEvent12isAutoRepeatEv(ptr noundef align 8 dereferenceable_or_null(82) %0) #5 comdat align 2 {
  %2 = alloca ptr, align 8
  store ptr %0, ptr %2, align 8
  %3 = load ptr, ptr %2, align 8
  %4 = getelementptr inbounds nuw %class.QKeyEvent, ptr %3, i32 0, i32 6
  %5 = load i16, ptr %4, align 8
  %6 = lshr i16 %5, 15
  %7 = icmp ne i16 %6, 0
  ret i1 %7
}

; Function Attrs: mustprogress null_pointer_is_valid sspstrong uwtable
define void @_ZN9ProtoTree15keyReleaseEventEP9QKeyEvent(ptr noundef align 8 dereferenceable_or_null(208) %0, ptr noundef %1) unnamed_addr #0 align 2 {
  %3 = alloca ptr, align 8
  %4 = alloca ptr, align 8
  store ptr %0, ptr %3, align 8
  store ptr %1, ptr %4, align 8
  %5 = load ptr, ptr %3, align 8
  %6 = load ptr, ptr %4, align 8
  %7 = call noundef zeroext i1 @_ZNK9QKeyEvent12isAutoRepeatEv(ptr noundef align 8 dereferenceable_or_null(82) %6)
  br i1 %7, label %8, label %9

8:                                                ; preds = %2
  br label %14

9:                                                ; preds = %2
  %10 = load ptr, ptr %4, align 8
  %11 = call noundef i32 @_ZNK9QKeyEvent3keyEv(ptr noundef align 8 dereferenceable_or_null(82) %10)
  switch i32 %11, label %13 [
    i32 16777235, label %12
    i32 16777237, label %12
    i32 16777238, label %12
    i32 16777239, label %12
    i32 16777232, label %12
    i32 16777233, label %12
  ]

12:                                               ; preds = %9, %9, %9, %9, %9, %9
  call void @_ZN9ProtoTree18updateContentWidthEv(ptr noundef align 8 dereferenceable_or_null(208) %5)
  br label %14

13:                                               ; preds = %9
  br label %14

14:                                               ; preds = %8, %13, %12
  ret void
}