; Function Attrs: mustprogress null_pointer_is_valid sspstrong uwtable
define void @_ZN9ProtoTree15keyReleaseEventEP9QKeyEvent(ptr noundef align 8 dereferenceable_or_null(208) %0, ptr noundef readonly captures(none) %1) unnamed_addr #0 align 2 {
  %3 = getelementptr inbounds nuw i8, ptr %1, i64 80
  %4 = load i16, ptr %3, align 8
  %5 = icmp slt i16 %4, 0
  br i1 %5, label %_ZN9ProtoTree18updateContentWidthEv.exit, label %6

6:                                                ; preds = %2
  %7 = getelementptr inbounds nuw i8, ptr %1, i64 64
  %8 = load i32, ptr %7, align 8
  switch i32 %8, label %_ZN9ProtoTree18updateContentWidthEv.exit [
    i32 16777235, label %9
    i32 16777237, label %9
    i32 16777238, label %9
    i32 16777239, label %9
    i32 16777232, label %9
    i32 16777233, label %9
  ]

9:                                                ; preds = %6, %6, %6, %6, %6, %6
  %10 = getelementptr inbounds nuw i8, ptr %0, i64 152
  %11 = load i32, ptr %10, align 8
  %12 = icmp eq i32 %11, 0
  br i1 %12, label %13, label %_ZN9ProtoTree18updateContentWidthEv.exit

13:                                               ; preds = %9
  %14 = tail call noundef i32 @_ZN7QObject10startTimerEiN2Qt9TimerTypeE(ptr noundef align 8 dereferenceable_or_null(208) %0, i32 noundef 0, i32 noundef 1)
  store i32 %14, ptr %10, align 8
  br label %_ZN9ProtoTree18updateContentWidthEv.exit

_ZN9ProtoTree18updateContentWidthEv.exit:         ; preds = %13, %9, %6, %2
  ret void
}